ccopy_reg
_reconstructor
p0
(c__main__
Guestbook
p1
c__builtin__
object
p2
Ntp3
Rp4
(dp5
S'index'
p6
I-1
sS'id'
p7
S'1'
p8
sS'entries'
p9
(lp10
g0
(c__main__
Entry
p11
g2
Ntp12
Rp13
(dp14
S'date'
p15
cdatetime
datetime
p16
(S'\x07\xe0\x0b\x14\x13\x16\x08\x03\xdc\xef'
p17
tp18
Rp19
sS'comment'
p20
VYour roommate
p21
sS'name'
p22
VMax
p23
sbag0
(g11
g2
Ntp24
Rp25
(dp26
g15
g16
(S'\x07\xe0\x0b\x14\x13\x1c#\x03\x8d\x8c'
p27
tp28
Rp29
sg20
VThis is a test
p30
sg22
VAaron
p31
sbag0
(g11
g2
Ntp32
Rp33
(dp34
g15
g16
(S'\x07\xe0\x0b\x14\x13\x1c2\x00\xb9I'
p35
tp36
Rp37
sg20
VWhere's the ring?
p38
sg22
VSam
p39
sbag0
(g11
g2
Ntp40
Rp41
(dp42
g15
g16
(S'\x07\xe0\x0b\x14\x13\x1e-\x05a^'
p43
tp44
Rp45
sg20
VMissing the L
p46
sg22
VMichae
p47
sbag0
(g11
g2
Ntp48
Rp49
(dp50
g15
g16
(S'\x07\xe0\x0b\x14\x13$:\no6'
p51
tp52
Rp53
sg20
VI'm back
p54
sg22
VAaron
p55
sbasb.